target datalayout = "e-m:e-p270:32:32-p271:32:32-p272:64:64-i64:64-i128:128-f80:128-n8:16:32:64-S128"
target triple = "x86_64-pc-linux-gnu"

%struct.PlatformTarget = type { ptr, i32, ptr, ptr, i32, i32, i32, i32, i32, i32, i32, [7 x %struct.AlignData], [7 x %struct.AlignData], [7 x %struct.AlignData], i32, i16, %union.anon, i8, i8, i8, i8, i8, i8, i8, i8, i8, i8, %struct.AlignData, i32, i32, i32, i32, i32, i32, i32, i32, i32, i32, i32, i32, i32, i32, i32, i32, ptr }
%union.anon = type { %struct.anon.0 }
%struct.anon.0 = type { %struct.X86Features, i32, i32 }
%struct.X86Features = type { [2 x i64], ptr }
%struct.AlignData = type { i32, i32 }

@platform_target = external global %struct.PlatformTarget, align 8
@.str = private unnamed_addr constant [36 x i8] c"FATAL ERROR %s -> in %s @ in %s:%d \00", align 1
@.str.1 = private unnamed_addr constant [22 x i8] c"Should be unreachable\00", align 1
@__func__.linker_find_linker_type = private unnamed_addr constant [24 x i8] c"linker_find_linker_type\00", align 1
@.str.2 = private unnamed_addr constant [107 x i8] c"generated/home/dtcxzyw/WorkSpace/Projects/compilers/llvm-opt-benchmark/bench/c3c/c3c/src/compiler/linker.c\00", align 1

; Function Attrs: nounwind uwtable
define dso_local i32 @linker_find_linker_type() #0 {
  %1 = alloca i32, align 4
  %2 = load i32, ptr getelementptr inbounds (%struct.PlatformTarget, ptr @platform_target, i32 0, i32 4), align 8
  %3 = call zeroext i1 @arch_is_wasm(i32 noundef %2)
  br i1 %3, label %4, label %5

4:                                                ; preds = %0
  store i32 3, ptr %1, align 4
  br label %13

5:                                                ; preds = %0
  %6 = load i32, ptr getelementptr inbounds (%struct.PlatformTarget, ptr @platform_target, i32 0, i32 5), align 4
  switch i32 %6, label %11 [
    i32 21, label %7
    i32 16, label %7
    i32 2, label %7
    i32 3, label %7
    i32 4, label %7
    i32 6, label %7
    i32 8, label %7
    i32 10, label %7
    i32 18, label %7
    i32 14, label %7
    i32 17, label %7
    i32 19, label %7
    i32 20, label %7
    i32 22, label %7
    i32 23, label %7
    i32 24, label %7
    i32 25, label %7
    i32 26, label %7
    i32 29, label %7
    i32 30, label %7
    i32 31, label %7
    i32 32, label %7
    i32 33, label %7
    i32 35, label %7
    i32 0, label %7
    i32 1, label %7
    i32 5, label %7
    i32 9, label %7
    i32 12, label %7
    i32 13, label %7
    i32 7, label %8
    i32 11, label %8
    i32 27, label %8
    i32 28, label %8
    i32 15, label %9
    i32 34, label %10
  ]

7:                                                ; preds = %5, %5, %5, %5, %5, %5, %5, %5, %5, %5, %5, %5, %5, %5, %5, %5, %5, %5, %5, %5, %5, %5, %5, %5, %5, %5, %5, %5, %5, %5
  store i32 1, ptr %1, align 4
  br label %13

8:                                                ; preds = %5, %5, %5, %5
  store i32 2, ptr %1, align 4
  br label %13

9:                                                ; preds = %5
  store i32 0, ptr %1, align 4
  br label %13

10:                                               ; preds = %5
  store i32 3, ptr %1, align 4
  br label %13

11:                                               ; preds = %5
  br label %12

12:                                               ; preds = %11
  call void (ptr, ...) @error_exit(ptr noundef @.str, ptr noundef @.str.1, ptr noundef @__func__.linker_find_linker_type, ptr noundef @.str.2, i32 noundef 613) #6
  unreachable

13:                                               ; preds = %10, %9, %8, %7, %4
  %14 = load i32, ptr %1, align 4
  ret i32 %14
}