; Function Attrs: nounwind uwtable
define dso_local noundef i32 @linker_find_linker_type() local_unnamed_addr #0 {
  %1 = load i32, ptr getelementptr inbounds (%struct.PlatformTarget, ptr @platform_target, i64 0, i32 4), align 8
  %2 = tail call zeroext i1 @arch_is_wasm(i32 noundef %1) #11
  br i1 %2, label %8, label %3

3:                                                ; preds = %0
  %4 = load i32, ptr getelementptr inbounds (%struct.PlatformTarget, ptr @platform_target, i64 0, i32 5), align 4
  %5 = icmp ult i32 %4, 36
  br i1 %5, label %switch.lookup, label %6

6:                                                ; preds = %3
  tail call void (ptr, ...) @error_exit(ptr noundef nonnull @.str, ptr noundef nonnull @.str.1, ptr noundef nonnull @__func__.linker_find_linker_type, ptr noundef nonnull @.str.2, i32 noundef 613) #12
  unreachable

switch.lookup:                                    ; preds = %3
  %7 = zext nneg i32 %4 to i64
  %switch.gep = getelementptr inbounds [36 x i32], ptr @switch.table.linker_find_linker_type, i64 0, i64 %7
  %switch.load = load i32, ptr %switch.gep, align 4
  br label %8

8:                                                ; preds = %switch.lookup, %0
  %.0 = phi i32 [ 3, %0 ], [ %switch.load, %switch.lookup ]
  ret i32 %.0
}